target datalayout = "e-m:e-p270:32:32-p271:32:32-p272:64:64-i64:64-i128:128-f80:128-n8:16:32:64-S128"
target triple = "x86_64-unknown-linux-gnu"

%"class.OpenImageIO_v2_6_0::pvt::TextureSystemImpl" = type <{ %"class.OpenImageIO_v2_6_0::TextureSystem", ptr, i8, [3 x i8], %"class.Imath_2_5::Matrix44", %"class.Imath_2_5::Matrix44", i8, i8, [2 x i8], i32, i32, %"class.boost::thread_specific_ptr", %"class.std::unique_ptr", i32, [4 x i8] }>
%"class.OpenImageIO_v2_6_0::TextureSystem" = type { ptr }
%"class.Imath_2_5::Matrix44" = type { [4 x [4 x float]] }
%"class.boost::thread_specific_ptr" = type { ptr }
%"class.std::unique_ptr" = type { %"struct.std::__uniq_ptr_data" }
%"struct.std::__uniq_ptr_data" = type { %"class.std::__uniq_ptr_impl" }
%"class.std::__uniq_ptr_impl" = type { %"class.std::tuple" }
%"class.std::tuple" = type { %"struct.std::_Tuple_impl" }
%"struct.std::_Tuple_impl" = type { %"struct.std::_Head_base.3" }
%"struct.std::_Head_base.3" = type { ptr }
%"class.std::__cxx11::basic_string" = type { %"struct.std::__cxx11::basic_string<char>::_Alloc_hider", i64, %union.anon.8 }
%"struct.std::__cxx11::basic_string<char>::_Alloc_hider" = type { ptr }
%union.anon.8 = type { i64, [8 x i8] }

@.str.50 = private unnamed_addr constant [3 x i8] c"{}\00", align 1

; Function Attrs: mustprogress uwtable
define hidden noundef zeroext i1 @_ZN18OpenImageIO_v2_6_03pvt17TextureSystemImpl13get_imagespecEPNS_13TextureSystem13TextureHandleEPNS2_9PerthreadEiRNS_9ImageSpecE(ptr noundef nonnull align 8 dereferenceable(184) %this, ptr noundef %texture_handle, ptr noundef %thread_info, i32 noundef %subimage, ptr noundef nonnull align 8 dereferenceable(160) %spec) unnamed_addr #7 align 2 personality ptr @__gxx_personality_v0 {
entry:
  %this.addr = alloca ptr, align 8
  %texture_handle.addr = alloca ptr, align 8
  %thread_info.addr = alloca ptr, align 8
  %subimage.addr = alloca i32, align 4
  %spec.addr = alloca ptr, align 8
  %ok = alloca i8, align 1
  %err = alloca %"class.std::__cxx11::basic_string", align 8
  %exn.slot = alloca ptr, align 8
  %ehselector.slot = alloca i32, align 4
  store ptr %this, ptr %this.addr, align 8
  store ptr %texture_handle, ptr %texture_handle.addr, align 8
  store ptr %thread_info, ptr %thread_info.addr, align 8
  store i32 %subimage, ptr %subimage.addr, align 4
  store ptr %spec, ptr %spec.addr, align 8
  %this1 = load ptr, ptr %this.addr, align 8
  %m_imagecache = getelementptr inbounds %"class.OpenImageIO_v2_6_0::pvt::TextureSystemImpl", ptr %this1, i32 0, i32 1
  %0 = load ptr, ptr %m_imagecache, align 8
  %1 = load ptr, ptr %texture_handle.addr, align 8
  %2 = load ptr, ptr %thread_info.addr, align 8
  %3 = load ptr, ptr %spec.addr, align 8
  %4 = load i32, ptr %subimage.addr, align 4
  %call = call noundef zeroext i1 @_ZN18OpenImageIO_v2_6_03pvt14ImageCacheImpl13get_imagespecEPNS0_14ImageCacheFileEPNS0_23ImageCachePerThreadInfoERNS_9ImageSpecEiib(ptr noundef nonnull align 64 dereferenceable(25280) %0, ptr noundef %1, ptr noundef %2, ptr noundef nonnull align 8 dereferenceable(160) %3, i32 noundef %4, i32 noundef 0, i1 noundef zeroext false)
  %frombool = zext i1 %call to i8
  store i8 %frombool, ptr %ok, align 1
  %5 = load i8, ptr %ok, align 1
  %tobool = trunc i8 %5 to i1
  br i1 %tobool, label %if.end5, label %if.then

if.then:                                          ; preds = %entry
  %m_imagecache2 = getelementptr inbounds %"class.OpenImageIO_v2_6_0::pvt::TextureSystemImpl", ptr %this1, i32 0, i32 1
  %6 = load ptr, ptr %m_imagecache2, align 8
  call void @_ZNK18OpenImageIO_v2_6_03pvt14ImageCacheImpl8geterrorB5cxx11Eb(ptr sret(%"class.std::__cxx11::basic_string") align 8 %err, ptr noundef nonnull align 64 dereferenceable(25280) %6, i1 noundef zeroext true)
  %call3 = call noundef zeroext i1 @_ZNKSt7__cxx1112basic_stringIcSt11char_traitsIcESaIcEE5emptyEv(ptr noundef nonnull align 8 dereferenceable(32) %err) #5
  br i1 %call3, label %if.end, label %if.then4

if.then4:                                         ; preds = %if.then
  invoke void @_ZNK18OpenImageIO_v2_6_03pvt17TextureSystemImpl5errorIJNSt7__cxx1112basic_stringIcSt11char_traitsIcESaIcEEEEEEvPKcDpRKT_(ptr noundef nonnull align 8 dereferenceable(184) %this1, ptr noundef @.str.50, ptr noundef nonnull align 8 dereferenceable(32) %err)
          to label %invoke.cont unwind label %lpad

invoke.cont:                                      ; preds = %if.then4
  br label %if.end

lpad:                                             ; preds = %if.then4
  %7 = landingpad { ptr, i32 }
          cleanup
  %8 = extractvalue { ptr, i32 } %7, 0
  store ptr %8, ptr %exn.slot, align 8
  %9 = extractvalue { ptr, i32 } %7, 1
  store i32 %9, ptr %ehselector.slot, align 4
  call void @_ZNSt7__cxx1112basic_stringIcSt11char_traitsIcESaIcEED1Ev(ptr noundef nonnull align 8 dereferenceable(32) %err) #5
  br label %eh.resume

if.end:                                           ; preds = %invoke.cont, %if.then
  call void @_ZNSt7__cxx1112basic_stringIcSt11char_traitsIcESaIcEED1Ev(ptr noundef nonnull align 8 dereferenceable(32) %err) #5
  br label %if.end5

if.end5:                                          ; preds = %if.end, %entry
  %10 = load i8, ptr %ok, align 1
  %tobool6 = trunc i8 %10 to i1
  ret i1 %tobool6

eh.resume:                                        ; preds = %lpad
  %exn = load ptr, ptr %exn.slot, align 8
  %sel = load i32, ptr %ehselector.slot, align 4
  %lpad.val = insertvalue { ptr, i32 } poison, ptr %exn, 0
  %lpad.val7 = insertvalue { ptr, i32 } %lpad.val, i32 %sel, 1
  resume { ptr, i32 } %lpad.val7
}